(dp1
S'x pixel shift'
(dp2
S'y'
F85.804312434660389
sS'x'
F40.668915650047005
sS'value'
p3
F5.4999999999999999e-06
ssS'y pixel shift'
(dp4
S'y'
F-21.121129159373652
sS'x'
F84.125673212379979
sg3
F5.4999999999999999e-06
ss.